; Function Attrs: mustprogress uwtable
define dso_local noundef ptr @_ZN4base15CustomHistogram10FactoryGetERKNSt7__cxx1112basic_stringIcSt11char_traitsIcESaIcEEERKSt6vectorIiSaIiEEi(ptr noundef nonnull align 8 dereferenceable(32) %name, ptr noundef nonnull align 8 dereferenceable(24) %custom_ranges, i32 noundef %flags) local_unnamed_addr #0 align 2 personality ptr @__gxx_personality_v0 {
entry:
  %ref.tmp1 = alloca %"class.logging::LogMessage", align 8
  %ref.tmp7 = alloca %"class.base::CustomHistogram::Factory", align 8
  %_M_finish.i.i = getelementptr inbounds i8, ptr %custom_ranges, i64 8
  %0 = load ptr, ptr %_M_finish.i.i, align 8
  %1 = load ptr, ptr %custom_ranges, align 8
  %sub.ptr.lhs.cast.i.i = ptrtoint ptr %0 to i64
  %sub.ptr.rhs.cast.i.i = ptrtoint ptr %1 to i64
  %sub.ptr.sub.i.i = sub i64 %sub.ptr.lhs.cast.i.i, %sub.ptr.rhs.cast.i.i
  %sub.ptr.div.i.i = ashr exact i64 %sub.ptr.sub.i.i, 2
  %cmp7.not.i = icmp eq ptr %0, %1
  br i1 %cmp7.not.i, label %cond.false, label %for.body.lr.ph.i

for.body.lr.ph.i:                                 ; preds = %entry
  %2 = load i32, ptr @_ZN4base13HistogramBase15kSampleType_MAXE, align 4
  br label %for.body.i

for.body.i:                                       ; preds = %if.end.i, %for.body.lr.ph.i
  %conv10.i = phi i64 [ 0, %for.body.lr.ph.i ], [ %conv.i, %if.end.i ]
  %i.09.i = phi i32 [ 0, %for.body.lr.ph.i ], [ %inc.i, %if.end.i ]
  %has_valid_range.08.i = phi i8 [ 0, %for.body.lr.ph.i ], [ %spec.select.i, %if.end.i ]
  %add.ptr.i.i = getelementptr inbounds i32, ptr %1, i64 %conv10.i
  %3 = load i32, ptr %add.ptr.i.i, align 4
  %cmp3.i = icmp sgt i32 %3, -1
  %cmp4.not.i = icmp slt i32 %3, %2
  %or.cond.i = select i1 %cmp3.i, i1 %cmp4.not.i, i1 false
  br i1 %or.cond.i, label %if.end.i, label %cond.false

if.end.i:                                         ; preds = %for.body.i
  %cmp5.not.i = icmp eq i32 %3, 0
  %spec.select.i = select i1 %cmp5.not.i, i8 %has_valid_range.08.i, i8 1
  %inc.i = add i32 %i.09.i, 1
  %conv.i = zext i32 %inc.i to i64
  %cmp.i = icmp ugt i64 %sub.ptr.div.i.i, %conv.i
  br i1 %cmp.i, label %for.body.i, label %_ZN4base15CustomHistogram20ValidateCustomRangesERKSt6vectorIiSaIiEE.exit, !llvm.loop !38

_ZN4base15CustomHistogram20ValidateCustomRangesERKSt6vectorIiSaIiEE.exit: ; preds = %if.end.i
  %4 = and i8 %spec.select.i, 1
  %.not = icmp eq i8 %4, 0
  br i1 %.not, label %cond.false, label %cleanup.done

cond.false:                                       ; preds = %for.body.i, %entry, %_ZN4base15CustomHistogram20ValidateCustomRangesERKSt6vectorIiSaIiEE.exit
  call void @_ZN7logging10LogMessageC1EPKciS2_(ptr noundef nonnull align 8 dereferenceable(404) %ref.tmp1, ptr noundef nonnull @.str, i32 noundef 1057, ptr noundef nonnull @.str.19)
  call void @_ZN7logging10LogMessageD1Ev(ptr noundef nonnull align 8 dereferenceable(404) %ref.tmp1) #19
  br label %cleanup.done

cleanup.done:                                     ; preds = %_ZN4base15CustomHistogram20ValidateCustomRangesERKSt6vectorIiSaIiEE.exit, %cond.false
  %name_.i.i = getelementptr inbounds i8, ptr %ref.tmp7, i64 8
  store ptr %name, ptr %name_.i.i, align 8
  %histogram_type_.i.i = getelementptr inbounds i8, ptr %ref.tmp7, i64 16
  store <4 x i32> <i32 3, i32 0, i32 0, i32 0>, ptr %histogram_type_.i.i, align 8
  %flags_.i.i = getelementptr inbounds i8, ptr %ref.tmp7, i64 32
  store i32 %flags, ptr %flags_.i.i, align 8
  store ptr getelementptr inbounds ({ [5 x ptr] }, ptr @_ZTVN4base15CustomHistogram7FactoryE, i64 0, i32 0, i64 2), ptr %ref.tmp7, align 8
  %custom_ranges_.i = getelementptr inbounds i8, ptr %ref.tmp7, i64 40
  store ptr %custom_ranges, ptr %custom_ranges_.i, align 8
  %call8 = call noundef ptr @_ZN4base9Histogram7Factory5BuildEv(ptr noundef nonnull align 8 dereferenceable(36) %ref.tmp7)
  ret ptr %call8
}